target datalayout = "e-m:e-p270:32:32-p271:32:32-p272:64:64-i64:64-i128:128-f80:128-n8:16:32:64-S128"
target triple = "x86_64-pc-linux-gnu"

%struct.lua_State = type { ptr, i8, i8, i8, i8, i16, %union.StkIdRel, ptr, ptr, %union.StkIdRel, %union.StkIdRel, ptr, %union.StkIdRel, ptr, ptr, ptr, %struct.CallInfo, ptr, i64, i32, i32, i32, i32, i32, %struct.anon.2 }
%union.StkIdRel = type { ptr }
%struct.CallInfo = type { %union.StkIdRel, %union.StkIdRel, ptr, ptr, %union.anon, %union.anon.1, i32 }
%union.anon = type { %struct.anon.0 }
%struct.anon.0 = type { ptr, i64, i64 }
%union.anon.1 = type { i32 }
%struct.anon.2 = type { i32, i32 }
%struct.global_State = type { ptr, ptr, i64, i64, i64, i64, %struct.stringtable, %struct.TValue, %struct.TValue, i32, [6 x i8], i8, i8, i8, i8, i8, i8, ptr, ptr, ptr, ptr, ptr, ptr, ptr, ptr, ptr, ptr, ptr, ptr, ptr, ptr, ptr, ptr, ptr, ptr, ptr, ptr, ptr, [25 x ptr], [9 x ptr], [53 x [2 x ptr]], ptr, ptr }
%struct.stringtable = type { ptr, i32, i32 }
%struct.TValue = type { %union.Value, i8 }
%union.Value = type { ptr }
%struct.Table = type { ptr, i8, i8, i8, i8, i32, ptr, ptr, ptr, ptr }
%struct.Udata = type { ptr, i8, i8, i16, i64, ptr, ptr, [1 x %union.UValue] }
%union.UValue = type { %struct.TValue }

; Function Attrs: nounwind uwtable
define hidden ptr @luaT_gettmbyobj(ptr noundef %0, ptr noundef %1, i32 noundef %2) #0 {
  %4 = alloca ptr, align 8
  %5 = alloca ptr, align 8
  %6 = alloca i32, align 4
  %7 = alloca ptr, align 8
  store ptr %0, ptr %4, align 8, !tbaa !4
  store ptr %1, ptr %5, align 8, !tbaa !28
  store i32 %2, ptr %6, align 4, !tbaa !9
  call void @llvm.lifetime.start.p0(i64 8, ptr %7) #6
  %8 = load ptr, ptr %5, align 8, !tbaa !28
  %9 = getelementptr inbounds nuw %struct.TValue, ptr %8, i32 0, i32 1
  %10 = load i8, ptr %9, align 8, !tbaa !30
  %11 = zext i8 %10 to i32
  %12 = and i32 %11, 15
  switch i32 %12, label %25 [
    i32 5, label %13
    i32 7, label %19
  ]

13:                                               ; preds = %3
  %14 = load ptr, ptr %5, align 8, !tbaa !28
  %15 = getelementptr inbounds nuw %struct.TValue, ptr %14, i32 0, i32 0
  %16 = load ptr, ptr %15, align 8, !tbaa !36
  %17 = getelementptr inbounds nuw %struct.Table, ptr %16, i32 0, i32 8
  %18 = load ptr, ptr %17, align 8, !tbaa !37
  store ptr %18, ptr %7, align 8, !tbaa !26
  br label %38

19:                                               ; preds = %3
  %20 = load ptr, ptr %5, align 8, !tbaa !28
  %21 = getelementptr inbounds nuw %struct.TValue, ptr %20, i32 0, i32 0
  %22 = load ptr, ptr %21, align 8, !tbaa !36
  %23 = getelementptr inbounds nuw %struct.Udata, ptr %22, i32 0, i32 5
  %24 = load ptr, ptr %23, align 8, !tbaa !38
  store ptr %24, ptr %7, align 8, !tbaa !26
  br label %38

25:                                               ; preds = %3
  %26 = load ptr, ptr %4, align 8, !tbaa !4
  %27 = getelementptr inbounds nuw %struct.lua_State, ptr %26, i32 0, i32 7
  %28 = load ptr, ptr %27, align 8, !tbaa !13
  %29 = getelementptr inbounds nuw %struct.global_State, ptr %28, i32 0, i32 39
  %30 = load ptr, ptr %5, align 8, !tbaa !28
  %31 = getelementptr inbounds nuw %struct.TValue, ptr %30, i32 0, i32 1
  %32 = load i8, ptr %31, align 8, !tbaa !30
  %33 = zext i8 %32 to i32
  %34 = and i32 %33, 15
  %35 = sext i32 %34 to i64
  %36 = getelementptr inbounds [9 x ptr], ptr %29, i64 0, i64 %35
  %37 = load ptr, ptr %36, align 8, !tbaa !26
  store ptr %37, ptr %7, align 8, !tbaa !26
  br label %38

38:                                               ; preds = %25, %19, %13
  %39 = load ptr, ptr %7, align 8, !tbaa !26
  %40 = icmp ne ptr %39, null
  br i1 %40, label %41, label %52

41:                                               ; preds = %38
  %42 = load ptr, ptr %7, align 8, !tbaa !26
  %43 = load ptr, ptr %4, align 8, !tbaa !4
  %44 = getelementptr inbounds nuw %struct.lua_State, ptr %43, i32 0, i32 7
  %45 = load ptr, ptr %44, align 8, !tbaa !13
  %46 = getelementptr inbounds nuw %struct.global_State, ptr %45, i32 0, i32 38
  %47 = load i32, ptr %6, align 4, !tbaa !9
  %48 = zext i32 %47 to i64
  %49 = getelementptr inbounds nuw [25 x ptr], ptr %46, i64 0, i64 %48
  %50 = load ptr, ptr %49, align 8, !tbaa !24
  %51 = call ptr @luaH_Hgetshortstr(ptr noundef %42, ptr noundef %50)
  br label %57

52:                                               ; preds = %38
  %53 = load ptr, ptr %4, align 8, !tbaa !4
  %54 = getelementptr inbounds nuw %struct.lua_State, ptr %53, i32 0, i32 7
  %55 = load ptr, ptr %54, align 8, !tbaa !13
  %56 = getelementptr inbounds nuw %struct.global_State, ptr %55, i32 0, i32 8
  br label %57

57:                                               ; preds = %52, %41
  %58 = phi ptr [ %51, %41 ], [ %56, %52 ]
  call void @llvm.lifetime.end.p0(i64 8, ptr %7) #6
  ret ptr %58
}