; Function Attrs: nounwind uwtable
define hidden ptr @luaT_gettmbyobj(ptr noundef readonly captures(none) %0, ptr noundef readonly captures(none) %1, i32 noundef %2) local_unnamed_addr #0 {
  %4 = getelementptr inbounds nuw i8, ptr %1, i64 8
  %5 = load i8, ptr %4, align 8, !tbaa !24
  %6 = and i8 %5, 15
  switch i8 %6, label %13 [
    i8 5, label %7
    i8 7, label %10
  ]

7:                                                ; preds = %3
  %8 = load ptr, ptr %1, align 8, !tbaa !31
  %9 = getelementptr inbounds nuw i8, ptr %8, i64 32
  br label %19

10:                                               ; preds = %3
  %11 = load ptr, ptr %1, align 8, !tbaa !31
  %12 = getelementptr inbounds nuw i8, ptr %11, i64 24
  br label %19

13:                                               ; preds = %3
  %14 = getelementptr inbounds nuw i8, ptr %0, i64 24
  %15 = load ptr, ptr %14, align 8, !tbaa !9
  %16 = getelementptr inbounds nuw i8, ptr %15, i64 480
  %17 = zext nneg i8 %6 to i64
  %18 = getelementptr inbounds nuw [9 x ptr], ptr %16, i64 0, i64 %17
  br label %19

19:                                               ; preds = %13, %10, %7
  %.0.in = phi ptr [ %18, %13 ], [ %12, %10 ], [ %9, %7 ]
  %.0 = load ptr, ptr %.0.in, align 8, !tbaa !32
  %.not = icmp eq ptr %.0, null
  %20 = getelementptr inbounds nuw i8, ptr %0, i64 24
  %21 = load ptr, ptr %20, align 8, !tbaa !9
  br i1 %.not, label %28, label %22

22:                                               ; preds = %19
  %23 = getelementptr inbounds nuw i8, ptr %21, i64 280
  %24 = zext i32 %2 to i64
  %25 = getelementptr inbounds nuw [25 x ptr], ptr %23, i64 0, i64 %24
  %26 = load ptr, ptr %25, align 8, !tbaa !22
  %27 = tail call ptr @luaH_Hgetshortstr(ptr noundef nonnull %.0, ptr noundef %26) #5
  br label %30

28:                                               ; preds = %19
  %29 = getelementptr inbounds nuw i8, ptr %21, i64 80
  br label %30

30:                                               ; preds = %28, %22
  %31 = phi ptr [ %27, %22 ], [ %29, %28 ]
  ret ptr %31
}